target datalayout = "e-m:e-p270:32:32-p271:32:32-p272:64:64-i64:64-i128:128-f80:128-n8:16:32:64-S128"
target triple = "x86_64-unknown-linux-gnu"

%struct.QemuMutex = type { %union.pthread_mutex_t, i8 }
%union.pthread_mutex_t = type { %struct.__pthread_mutex_s }
%struct.__pthread_mutex_s = type { i32, i32, i32, i32, i32, i16, i16, %struct.__pthread_internal_list }
%struct.__pthread_internal_list = type { ptr, ptr }
%struct.QTailQLink = type { ptr, ptr }
%struct.MirrorBlockJob = type { %struct.BlockJob, ptr, ptr, ptr, ptr, ptr, ptr, ptr, i8, i32, i8, i32, i32, i32, i8, i8, i64, i64, i64, ptr, ptr, ptr, ptr, %struct.anon.14, i32, i64, ptr, i32, i64, %union.anon.15, i32, i8, i32, i32, i8, i32, i64, i8, i8 }
%struct.BlockJob = type { %struct.Job, i32, i64, %struct.RateLimit, ptr, %struct.Notifier, %struct.Notifier, %struct.Notifier, %struct.Notifier, %struct.Notifier, ptr }
%struct.Job = type { ptr, ptr, ptr, i8, i8, ptr, ptr, %struct.ProgressMeter, ptr, i32, i32, %struct.QEMUTimer, i32, i8, i8, i8, i8, i8, i8, i32, ptr, %struct.NotifierList, %struct.NotifierList, %struct.NotifierList, %struct.NotifierList, %struct.NotifierList, %struct.anon.11, ptr, %struct.anon.12 }
%struct.ProgressMeter = type { i64, i64, %struct.QemuMutex }
%struct.QEMUTimer = type { i64, ptr, ptr, ptr, ptr, i32, i32 }
%struct.NotifierList = type { %struct.anon.10 }
%struct.anon.10 = type { ptr }
%struct.anon.11 = type { ptr, ptr }
%struct.anon.12 = type { ptr, ptr }
%struct.RateLimit = type { %struct.QemuMutex, i64, i64, i64, i64, i64 }
%struct.Notifier = type { ptr, %struct.anon.13 }
%struct.anon.13 = type { ptr, ptr }
%struct.anon.14 = type { ptr, ptr }
%union.anon.15 = type { %struct.QTailQLink }

; Function Attrs: nounwind sspstrong uwtable
define internal void @mirror_throttle(ptr noundef %s) #0 {
entry:
  %s.addr = alloca ptr, align 8
  %now = alloca i64, align 8
  store ptr %s, ptr %s.addr, align 8
  %call = call i64 @qemu_clock_get_ns(i32 noundef 0)
  store i64 %call, ptr %now, align 8
  %0 = load i64, ptr %now, align 8
  %1 = load ptr, ptr %s.addr, align 8
  %last_pause_ns = getelementptr inbounds %struct.MirrorBlockJob, ptr %1, i32 0, i32 25
  %2 = load i64, ptr %last_pause_ns, align 8
  %sub = sub i64 %0, %2
  %cmp = icmp ugt i64 %sub, 100000000
  br i1 %cmp, label %if.then, label %if.else

if.then:                                          ; preds = %entry
  %3 = load i64, ptr %now, align 8
  %4 = load ptr, ptr %s.addr, align 8
  %last_pause_ns1 = getelementptr inbounds %struct.MirrorBlockJob, ptr %4, i32 0, i32 25
  store i64 %3, ptr %last_pause_ns1, align 8
  %5 = load ptr, ptr %s.addr, align 8
  %common = getelementptr inbounds %struct.MirrorBlockJob, ptr %5, i32 0, i32 0
  %job = getelementptr inbounds %struct.BlockJob, ptr %common, i32 0, i32 0
  call void @job_sleep_ns(ptr noundef %job, i64 noundef 0)
  br label %if.end

if.else:                                          ; preds = %entry
  %6 = load ptr, ptr %s.addr, align 8
  %common2 = getelementptr inbounds %struct.MirrorBlockJob, ptr %6, i32 0, i32 0
  %job3 = getelementptr inbounds %struct.BlockJob, ptr %common2, i32 0, i32 0
  call void @job_pause_point(ptr noundef %job3)
  br label %if.end

if.end:                                           ; preds = %if.else, %if.then
  ret void
}