; Function Attrs: nounwind sspstrong uwtable
define internal void @mirror_throttle(ptr noundef %s) #0 {
entry:
  %call = tail call i64 @qemu_clock_get_ns(i32 noundef 0) #12
  %last_pause_ns = getelementptr inbounds nuw i8, ptr %s, i64 688
  %0 = load i64, ptr %last_pause_ns, align 8
  %sub = sub i64 %call, %0
  %cmp = icmp ugt i64 %sub, 100000000
  br i1 %cmp, label %if.then, label %if.else

if.then:                                          ; preds = %entry
  store i64 %call, ptr %last_pause_ns, align 8
  tail call void @job_sleep_ns(ptr noundef nonnull %s, i64 noundef 0) #12
  br label %if.end

if.else:                                          ; preds = %entry
  tail call void @job_pause_point(ptr noundef nonnull %s) #12
  br label %if.end

if.end:                                           ; preds = %if.else, %if.then
  ret void
}